target datalayout = "e-m:e-p270:32:32-p271:32:32-p272:64:64-i64:64-i128:128-f80:128-n8:16:32:64-S128"
target triple = "x86_64-pc-linux-gnu"

%class.PreferenceEditorFrame = type { %class.AccordionFrame, ptr, ptr, ptr, i32, %class.QString, ptr }
%class.AccordionFrame = type { %class.QFrame, i32, ptr }
%class.QFrame = type { %class.QWidget }
%class.QWidget = type { %class.QObject, %class.QPaintDevice.base, ptr }
%class.QObject = type { ptr, %class.QScopedPointer }
%class.QScopedPointer = type { ptr }
%class.QPaintDevice.base = type <{ ptr, i16 }>
%class.QString = type { %struct.QArrayDataPointer }
%struct.QArrayDataPointer = type { ptr, ptr, i64 }
%class.Ui_PreferenceEditorFrame = type { ptr, ptr, ptr, ptr, ptr, ptr, ptr, ptr }
%class.SyntaxLineEdit = type <{ %class.QLineEdit, ptr, ptr, i32, [4 x i8], %class.QString, %class.QString, %class.QString, %class.QString, %class.QString, i8, [7 x i8] }>
%class.QLineEdit = type { %class.QWidget }

; Function Attrs: mustprogress nounwind uwtable
define linkonce_odr noundef i32 @_ZNK14SyntaxLineEdit11syntaxStateEv(ptr noundef nonnull align 8 dereferenceable(185) %0) #4 comdat align 2 {
  %2 = alloca ptr, align 8
  store ptr %0, ptr %2, align 8
  %3 = load ptr, ptr %2, align 8
  %4 = getelementptr inbounds %class.SyntaxLineEdit, ptr %3, i32 0, i32 3
  %5 = load i32, ptr %4, align 8
  ret i32 %5
}

; Function Attrs: mustprogress uwtable
define void @_ZN21PreferenceEditorFrame24stringLineEditTextEditedERK7QString(ptr noundef nonnull align 8 dereferenceable(120) %0, ptr noundef nonnull align 8 dereferenceable(24) %1) #0 align 2 {
  %3 = alloca ptr, align 8
  %4 = alloca ptr, align 8
  %5 = alloca i8, align 1
  store ptr %0, ptr %3, align 8
  store ptr %1, ptr %4, align 8
  %6 = load ptr, ptr %3, align 8
  store i8 1, ptr %5, align 1
  %7 = load ptr, ptr %4, align 8
  %8 = getelementptr inbounds %class.PreferenceEditorFrame, ptr %6, i32 0, i32 5
  %9 = call noundef nonnull align 8 dereferenceable(24) ptr @_ZN7QStringaSERKS_(ptr noundef nonnull align 8 dereferenceable(24) %8, ptr noundef nonnull align 8 dereferenceable(24) %7) #15
  %10 = getelementptr inbounds %class.PreferenceEditorFrame, ptr %6, i32 0, i32 3
  %11 = load ptr, ptr %10, align 8
  %12 = call i32 @prefs_get_type(ptr noundef %11)
  %13 = icmp eq i32 %12, 131072
  br i1 %13, label %14, label %27

14:                                               ; preds = %2
  %15 = getelementptr inbounds %class.PreferenceEditorFrame, ptr %6, i32 0, i32 1
  %16 = load ptr, ptr %15, align 8
  %17 = getelementptr inbounds %class.Ui_PreferenceEditorFrame, ptr %16, i32 0, i32 4
  %18 = load ptr, ptr %17, align 8
  %19 = getelementptr inbounds %class.PreferenceEditorFrame, ptr %6, i32 0, i32 5
  call void @_ZN23DissectorSyntaxLineEdit18checkDissectorNameERK7QString(ptr noundef nonnull align 8 dereferenceable(216) %18, ptr noundef nonnull align 8 dereferenceable(24) %19)
  %20 = getelementptr inbounds %class.PreferenceEditorFrame, ptr %6, i32 0, i32 1
  %21 = load ptr, ptr %20, align 8
  %22 = getelementptr inbounds %class.Ui_PreferenceEditorFrame, ptr %21, i32 0, i32 4
  %23 = load ptr, ptr %22, align 8
  %24 = call noundef i32 @_ZNK14SyntaxLineEdit11syntaxStateEv(ptr noundef nonnull align 8 dereferenceable(185) %23)
  %25 = icmp ne i32 %24, 2
  %26 = zext i1 %25 to i8
  store i8 %26, ptr %5, align 1
  br label %27

27:                                               ; preds = %14, %2
  %28 = getelementptr inbounds %class.PreferenceEditorFrame, ptr %6, i32 0, i32 1
  %29 = load ptr, ptr %28, align 8
  %30 = getelementptr inbounds %class.Ui_PreferenceEditorFrame, ptr %29, i32 0, i32 7
  %31 = load ptr, ptr %30, align 8
  %32 = call noundef ptr @_ZNK16QDialogButtonBox6buttonENS_14StandardButtonE(ptr noundef nonnull align 8 dereferenceable(40) %31, i32 noundef 1024)
  %33 = load i8, ptr %5, align 1
  %34 = trunc i8 %33 to i1
  call void @_ZN7QWidget10setEnabledEb(ptr noundef nonnull align 8 dereferenceable(40) %32, i1 noundef zeroext %34)
  ret void
}