; Function Attrs: mustprogress uwtable
define void @_ZN21PreferenceEditorFrame24stringLineEditTextEditedERK7QString(ptr noundef nonnull align 8 dereferenceable(120) %0, ptr noundef nonnull align 8 dereferenceable(24) %1) #0 align 2 {
  %3 = getelementptr inbounds i8, ptr %0, i64 88
  %4 = tail call noundef nonnull align 8 dereferenceable(24) ptr @_ZN7QStringaSERKS_(ptr noundef nonnull align 8 dereferenceable(24) %3, ptr noundef nonnull align 8 dereferenceable(24) %1) #15
  %5 = getelementptr inbounds i8, ptr %0, i64 72
  %6 = load ptr, ptr %5, align 8
  %7 = tail call i32 @prefs_get_type(ptr noundef %6)
  %8 = icmp eq i32 %7, 131072
  %9 = getelementptr inbounds i8, ptr %0, i64 56
  %10 = load ptr, ptr %9, align 8
  br i1 %8, label %11, label %._crit_edge

11:                                               ; preds = %2
  %12 = getelementptr inbounds i8, ptr %10, i64 32
  %13 = load ptr, ptr %12, align 8
  tail call void @_ZN23DissectorSyntaxLineEdit18checkDissectorNameERK7QString(ptr noundef nonnull align 8 dereferenceable(216) %13, ptr noundef nonnull align 8 dereferenceable(24) %3)
  %14 = load ptr, ptr %9, align 8
  %15 = getelementptr inbounds i8, ptr %14, i64 32
  %16 = load ptr, ptr %15, align 8
  %17 = getelementptr inbounds i8, ptr %16, i64 56
  %18 = load i32, ptr %17, align 8
  %19 = icmp ne i32 %18, 2
  br label %._crit_edge

._crit_edge:                                      ; preds = %2, %11
  %20 = phi ptr [ %14, %11 ], [ %10, %2 ]
  %.0 = phi i1 [ %19, %11 ], [ true, %2 ]
  %21 = getelementptr inbounds i8, ptr %20, i64 56
  %22 = load ptr, ptr %21, align 8
  %23 = tail call noundef ptr @_ZNK16QDialogButtonBox6buttonENS_14StandardButtonE(ptr noundef nonnull align 8 dereferenceable(40) %22, i32 noundef 1024)
  tail call void @_ZN7QWidget10setEnabledEb(ptr noundef nonnull align 8 dereferenceable(40) %23, i1 noundef zeroext %.0)
  ret void
}